; Function Attrs: mustprogress nofree nounwind willreturn memory(read, inaccessiblemem: none) uwtable
define dso_local { i64, ptr } @_ZNK4absl9ByAnyChar4FindESt17basic_string_viewIcSt11char_traitsIcEEm(ptr noundef nonnull readonly align 8 captures(none) dereferenceable(32) %0, i64 %1, ptr %2, i64 noundef %3) local_unnamed_addr #4 align 2 personality ptr @__gxx_personality_v0 {
  %5 = load ptr, ptr %0, align 8, !tbaa !12
  %6 = getelementptr inbounds nuw i8, ptr %0, i64 8
  %7 = load i64, ptr %6, align 8, !tbaa !15
  %8 = icmp eq i64 %7, 0
  br i1 %8, label %9, label %13

9:                                                ; preds = %4
  %.not.i = icmp eq i64 %1, 0
  br i1 %.not.i, label %_ZN4absl12_GLOBAL__N_111GenericFindINS0_11AnyOfPolicyEEESt17basic_string_viewIcSt11char_traitsIcEES6_S6_mT_.exit, label %10

10:                                               ; preds = %9
  %11 = getelementptr inbounds nuw i8, ptr %2, i64 %3
  %12 = getelementptr inbounds nuw i8, ptr %11, i64 1
  br label %_ZN4absl12_GLOBAL__N_111GenericFindINS0_11AnyOfPolicyEEESt17basic_string_viewIcSt11char_traitsIcEES6_S6_mT_.exit

13:                                               ; preds = %4
  %14 = getelementptr inbounds nuw i8, ptr %2, i64 %1
  %15 = icmp ult i64 %3, %1
  br i1 %15, label %_ZNSt11char_traitsIcE4findEPKcmRS1_.exit.i.i.i.i, label %_ZN4absl12_GLOBAL__N_111GenericFindINS0_11AnyOfPolicyEEESt17basic_string_viewIcSt11char_traitsIcEES6_S6_mT_.exit

_ZNSt11char_traitsIcE4findEPKcmRS1_.exit.i.i.i.i: ; preds = %13, %20
  %.01116.i.i.i.i = phi i64 [ %21, %20 ], [ %3, %13 ]
  %16 = getelementptr inbounds nuw i8, ptr %2, i64 %.01116.i.i.i.i
  %17 = load i8, ptr %16, align 1, !tbaa !14
  %18 = sext i8 %17 to i32
  %19 = tail call ptr @memchr(ptr noundef readonly %5, i32 noundef %18, i64 noundef %7) #11
  %.not13.not.i.i.i.i = icmp eq ptr %19, null
  br i1 %.not13.not.i.i.i.i, label %20, label %_ZN4absl12_GLOBAL__N_111AnyOfPolicy4FindESt17basic_string_viewIcSt11char_traitsIcEES5_m.exit.i

20:                                               ; preds = %_ZNSt11char_traitsIcE4findEPKcmRS1_.exit.i.i.i.i
  %21 = add i64 %.01116.i.i.i.i, 1
  %exitcond.not.i.i.i.i = icmp eq i64 %21, %1
  br i1 %exitcond.not.i.i.i.i, label %_ZN4absl12_GLOBAL__N_111GenericFindINS0_11AnyOfPolicyEEESt17basic_string_viewIcSt11char_traitsIcEES6_S6_mT_.exit, label %_ZNSt11char_traitsIcE4findEPKcmRS1_.exit.i.i.i.i, !llvm.loop !18

_ZN4absl12_GLOBAL__N_111AnyOfPolicy4FindESt17basic_string_viewIcSt11char_traitsIcEES5_m.exit.i: ; preds = %_ZNSt11char_traitsIcE4findEPKcmRS1_.exit.i.i.i.i
  %22 = getelementptr inbounds nuw i8, ptr %2, i64 %.01116.i.i.i.i
  %.not8.i = icmp ne i64 %.01116.i.i.i.i, -1
  %spec.select.i = zext i1 %.not8.i to i64
  %spec.select26.i = select i1 %.not8.i, ptr %22, ptr %14
  br label %_ZN4absl12_GLOBAL__N_111GenericFindINS0_11AnyOfPolicyEEESt17basic_string_viewIcSt11char_traitsIcEES6_S6_mT_.exit

_ZN4absl12_GLOBAL__N_111GenericFindINS0_11AnyOfPolicyEEESt17basic_string_viewIcSt11char_traitsIcEES6_S6_mT_.exit: ; preds = %20, %9, %10, %13, %_ZN4absl12_GLOBAL__N_111AnyOfPolicy4FindESt17basic_string_viewIcSt11char_traitsIcEES5_m.exit.i
  %.sroa.020.0.i = phi i64 [ 0, %10 ], [ 0, %13 ], [ %spec.select.i, %_ZN4absl12_GLOBAL__N_111AnyOfPolicy4FindESt17basic_string_viewIcSt11char_traitsIcEES5_m.exit.i ], [ 0, %9 ], [ 0, %20 ]
  %.sroa.421.0.i = phi ptr [ %12, %10 ], [ %14, %13 ], [ %spec.select26.i, %_ZN4absl12_GLOBAL__N_111AnyOfPolicy4FindESt17basic_string_viewIcSt11char_traitsIcEES5_m.exit.i ], [ %2, %9 ], [ %14, %20 ]
  %.fca.0.insert.i7 = insertvalue { i64, ptr } poison, i64 %.sroa.020.0.i, 0
  %.fca.1.insert.i8 = insertvalue { i64, ptr } %.fca.0.insert.i7, ptr %.sroa.421.0.i, 1
  ret { i64, ptr } %.fca.1.insert.i8
}